target datalayout = "e-m:e-p270:32:32-p271:32:32-p272:64:64-i64:64-i128:128-f80:128-n8:16:32:64-S128"
target triple = "x86_64-pc-linux-gnu"

@hf_9P_dm_dir = internal global i32 0, align 4
@hf_9P_dm_append = internal global i32 0, align 4
@hf_9P_dm_exclusive = internal global i32 0, align 4
@hf_9P_dm_mount = internal global i32 0, align 4
@hf_9P_dm_auth_file = internal global i32 0, align 4
@hf_9P_dm_temp_file = internal global i32 0, align 4
@hf_9P_dm_read_owner = internal global i32 0, align 4
@hf_9P_dm_write_owner = internal global i32 0, align 4
@hf_9P_dm_exec_owner = internal global i32 0, align 4
@hf_9P_dm_read_group = internal global i32 0, align 4
@hf_9P_dm_write_group = internal global i32 0, align 4
@hf_9P_dm_exec_group = internal global i32 0, align 4
@hf_9P_dm_read_others = internal global i32 0, align 4
@hf_9P_dm_write_others = internal global i32 0, align 4
@hf_9P_dm_exec_others = internal global i32 0, align 4
@ett_9P_dm = internal global i32 0, align 4

; Function Attrs: null_pointer_is_valid sspstrong uwtable
define internal void @dissect_9P_dm(ptr noundef %0, ptr noundef %1, i32 noundef %2, i32 noundef %3) #0 {
  %5 = alloca ptr, align 8
  %6 = alloca ptr, align 8
  %7 = alloca i32, align 4
  %8 = alloca i32, align 4
  %9 = alloca ptr, align 8
  %10 = alloca i32, align 4
  store ptr %0, ptr %5, align 8
  store ptr %1, ptr %6, align 8
  store i32 %2, ptr %7, align 4
  store i32 %3, ptr %8, align 4
  call void @llvm.lifetime.start.p0(i64 8, ptr %9) #7
  %11 = load ptr, ptr %6, align 8
  %12 = load i32, ptr @ett_9P_dm, align 4
  %13 = call ptr @proto_item_add_subtree(ptr noundef %11, i32 noundef %12)
  store ptr %13, ptr %9, align 8
  %14 = load ptr, ptr %9, align 8
  %15 = icmp ne ptr %14, null
  br i1 %15, label %17, label %16

16:                                               ; preds = %4
  store i32 1, ptr %10, align 4
  br label %97

17:                                               ; preds = %4
  %18 = load ptr, ptr %9, align 8
  %19 = load i32, ptr @hf_9P_dm_dir, align 4
  %20 = load ptr, ptr %5, align 8
  %21 = load i32, ptr %7, align 4
  %22 = call ptr @proto_tree_add_item(ptr noundef %18, i32 noundef %19, ptr noundef %20, i32 noundef %21, i32 noundef 4, i32 noundef -2147483648)
  %23 = load i32, ptr %8, align 4
  %24 = icmp ne i32 %23, 0
  br i1 %24, label %51, label %25

25:                                               ; preds = %17
  %26 = load ptr, ptr %9, align 8
  %27 = load i32, ptr @hf_9P_dm_append, align 4
  %28 = load ptr, ptr %5, align 8
  %29 = load i32, ptr %7, align 4
  %30 = call ptr @proto_tree_add_item(ptr noundef %26, i32 noundef %27, ptr noundef %28, i32 noundef %29, i32 noundef 4, i32 noundef -2147483648)
  %31 = load ptr, ptr %9, align 8
  %32 = load i32, ptr @hf_9P_dm_exclusive, align 4
  %33 = load ptr, ptr %5, align 8
  %34 = load i32, ptr %7, align 4
  %35 = call ptr @proto_tree_add_item(ptr noundef %31, i32 noundef %32, ptr noundef %33, i32 noundef %34, i32 noundef 4, i32 noundef -2147483648)
  %36 = load ptr, ptr %9, align 8
  %37 = load i32, ptr @hf_9P_dm_mount, align 4
  %38 = load ptr, ptr %5, align 8
  %39 = load i32, ptr %7, align 4
  %40 = call ptr @proto_tree_add_item(ptr noundef %36, i32 noundef %37, ptr noundef %38, i32 noundef %39, i32 noundef 4, i32 noundef -2147483648)
  %41 = load ptr, ptr %9, align 8
  %42 = load i32, ptr @hf_9P_dm_auth_file, align 4
  %43 = load ptr, ptr %5, align 8
  %44 = load i32, ptr %7, align 4
  %45 = call ptr @proto_tree_add_item(ptr noundef %41, i32 noundef %42, ptr noundef %43, i32 noundef %44, i32 noundef 4, i32 noundef -2147483648)
  %46 = load ptr, ptr %9, align 8
  %47 = load i32, ptr @hf_9P_dm_temp_file, align 4
  %48 = load ptr, ptr %5, align 8
  %49 = load i32, ptr %7, align 4
  %50 = call ptr @proto_tree_add_item(ptr noundef %46, i32 noundef %47, ptr noundef %48, i32 noundef %49, i32 noundef 4, i32 noundef -2147483648)
  br label %51

51:                                               ; preds = %25, %17
  %52 = load ptr, ptr %9, align 8
  %53 = load i32, ptr @hf_9P_dm_read_owner, align 4
  %54 = load ptr, ptr %5, align 8
  %55 = load i32, ptr %7, align 4
  %56 = call ptr @proto_tree_add_item(ptr noundef %52, i32 noundef %53, ptr noundef %54, i32 noundef %55, i32 noundef 4, i32 noundef -2147483648)
  %57 = load ptr, ptr %9, align 8
  %58 = load i32, ptr @hf_9P_dm_write_owner, align 4
  %59 = load ptr, ptr %5, align 8
  %60 = load i32, ptr %7, align 4
  %61 = call ptr @proto_tree_add_item(ptr noundef %57, i32 noundef %58, ptr noundef %59, i32 noundef %60, i32 noundef 4, i32 noundef -2147483648)
  %62 = load ptr, ptr %9, align 8
  %63 = load i32, ptr @hf_9P_dm_exec_owner, align 4
  %64 = load ptr, ptr %5, align 8
  %65 = load i32, ptr %7, align 4
  %66 = call ptr @proto_tree_add_item(ptr noundef %62, i32 noundef %63, ptr noundef %64, i32 noundef %65, i32 noundef 4, i32 noundef -2147483648)
  %67 = load ptr, ptr %9, align 8
  %68 = load i32, ptr @hf_9P_dm_read_group, align 4
  %69 = load ptr, ptr %5, align 8
  %70 = load i32, ptr %7, align 4
  %71 = call ptr @proto_tree_add_item(ptr noundef %67, i32 noundef %68, ptr noundef %69, i32 noundef %70, i32 noundef 4, i32 noundef -2147483648)
  %72 = load ptr, ptr %9, align 8
  %73 = load i32, ptr @hf_9P_dm_write_group, align 4
  %74 = load ptr, ptr %5, align 8
  %75 = load i32, ptr %7, align 4
  %76 = call ptr @proto_tree_add_item(ptr noundef %72, i32 noundef %73, ptr noundef %74, i32 noundef %75, i32 noundef 4, i32 noundef -2147483648)
  %77 = load ptr, ptr %9, align 8
  %78 = load i32, ptr @hf_9P_dm_exec_group, align 4
  %79 = load ptr, ptr %5, align 8
  %80 = load i32, ptr %7, align 4
  %81 = call ptr @proto_tree_add_item(ptr noundef %77, i32 noundef %78, ptr noundef %79, i32 noundef %80, i32 noundef 4, i32 noundef -2147483648)
  %82 = load ptr, ptr %9, align 8
  %83 = load i32, ptr @hf_9P_dm_read_others, align 4
  %84 = load ptr, ptr %5, align 8
  %85 = load i32, ptr %7, align 4
  %86 = call ptr @proto_tree_add_item(ptr noundef %82, i32 noundef %83, ptr noundef %84, i32 noundef %85, i32 noundef 4, i32 noundef -2147483648)
  %87 = load ptr, ptr %9, align 8
  %88 = load i32, ptr @hf_9P_dm_write_others, align 4
  %89 = load ptr, ptr %5, align 8
  %90 = load i32, ptr %7, align 4
  %91 = call ptr @proto_tree_add_item(ptr noundef %87, i32 noundef %88, ptr noundef %89, i32 noundef %90, i32 noundef 4, i32 noundef -2147483648)
  %92 = load ptr, ptr %9, align 8
  %93 = load i32, ptr @hf_9P_dm_exec_others, align 4
  %94 = load ptr, ptr %5, align 8
  %95 = load i32, ptr %7, align 4
  %96 = call ptr @proto_tree_add_item(ptr noundef %92, i32 noundef %93, ptr noundef %94, i32 noundef %95, i32 noundef 4, i32 noundef -2147483648)
  store i32 0, ptr %10, align 4
  br label %97

97:                                               ; preds = %51, %16
  call void @llvm.lifetime.end.p0(i64 8, ptr %9) #7
  %98 = load i32, ptr %10, align 4
  switch i32 %98, label %100 [
    i32 0, label %99
    i32 1, label %99
  ]

99:                                               ; preds = %97, %97
  ret void

100:                                              ; preds = %97
  unreachable
}