; Function Attrs: null_pointer_is_valid sspstrong uwtable
define internal fastcc void @dissect_9P_dm(ptr noundef %0, ptr noundef %1, i32 noundef range(i32 13, 65553) %2, i32 noundef range(i32 0, 2) %3) unnamed_addr #0 {
  %5 = load i32, ptr @ett_9P_dm, align 4
  %6 = tail call ptr @proto_item_add_subtree(ptr noundef %1, i32 noundef %5)
  %.not = icmp eq ptr %6, null
  br i1 %.not, label %40, label %7

7:                                                ; preds = %4
  %8 = load i32, ptr @hf_9P_dm_dir, align 4
  %9 = tail call ptr @proto_tree_add_item(ptr noundef nonnull %6, i32 noundef %8, ptr noundef %0, i32 noundef %2, i32 noundef 4, i32 noundef -2147483648)
  %.not47 = icmp eq i32 %3, 0
  br i1 %.not47, label %10, label %21

10:                                               ; preds = %7
  %11 = load i32, ptr @hf_9P_dm_append, align 4
  %12 = tail call ptr @proto_tree_add_item(ptr noundef nonnull %6, i32 noundef %11, ptr noundef %0, i32 noundef %2, i32 noundef 4, i32 noundef -2147483648)
  %13 = load i32, ptr @hf_9P_dm_exclusive, align 4
  %14 = tail call ptr @proto_tree_add_item(ptr noundef nonnull %6, i32 noundef %13, ptr noundef %0, i32 noundef %2, i32 noundef 4, i32 noundef -2147483648)
  %15 = load i32, ptr @hf_9P_dm_mount, align 4
  %16 = tail call ptr @proto_tree_add_item(ptr noundef nonnull %6, i32 noundef %15, ptr noundef %0, i32 noundef %2, i32 noundef 4, i32 noundef -2147483648)
  %17 = load i32, ptr @hf_9P_dm_auth_file, align 4
  %18 = tail call ptr @proto_tree_add_item(ptr noundef nonnull %6, i32 noundef %17, ptr noundef %0, i32 noundef %2, i32 noundef 4, i32 noundef -2147483648)
  %19 = load i32, ptr @hf_9P_dm_temp_file, align 4
  %20 = tail call ptr @proto_tree_add_item(ptr noundef nonnull %6, i32 noundef %19, ptr noundef %0, i32 noundef %2, i32 noundef 4, i32 noundef -2147483648)
  br label %21

21:                                               ; preds = %10, %7
  %22 = load i32, ptr @hf_9P_dm_read_owner, align 4
  %23 = tail call ptr @proto_tree_add_item(ptr noundef nonnull %6, i32 noundef %22, ptr noundef %0, i32 noundef %2, i32 noundef 4, i32 noundef -2147483648)
  %24 = load i32, ptr @hf_9P_dm_write_owner, align 4
  %25 = tail call ptr @proto_tree_add_item(ptr noundef nonnull %6, i32 noundef %24, ptr noundef %0, i32 noundef %2, i32 noundef 4, i32 noundef -2147483648)
  %26 = load i32, ptr @hf_9P_dm_exec_owner, align 4
  %27 = tail call ptr @proto_tree_add_item(ptr noundef nonnull %6, i32 noundef %26, ptr noundef %0, i32 noundef %2, i32 noundef 4, i32 noundef -2147483648)
  %28 = load i32, ptr @hf_9P_dm_read_group, align 4
  %29 = tail call ptr @proto_tree_add_item(ptr noundef nonnull %6, i32 noundef %28, ptr noundef %0, i32 noundef %2, i32 noundef 4, i32 noundef -2147483648)
  %30 = load i32, ptr @hf_9P_dm_write_group, align 4
  %31 = tail call ptr @proto_tree_add_item(ptr noundef nonnull %6, i32 noundef %30, ptr noundef %0, i32 noundef %2, i32 noundef 4, i32 noundef -2147483648)
  %32 = load i32, ptr @hf_9P_dm_exec_group, align 4
  %33 = tail call ptr @proto_tree_add_item(ptr noundef nonnull %6, i32 noundef %32, ptr noundef %0, i32 noundef %2, i32 noundef 4, i32 noundef -2147483648)
  %34 = load i32, ptr @hf_9P_dm_read_others, align 4
  %35 = tail call ptr @proto_tree_add_item(ptr noundef nonnull %6, i32 noundef %34, ptr noundef %0, i32 noundef %2, i32 noundef 4, i32 noundef -2147483648)
  %36 = load i32, ptr @hf_9P_dm_write_others, align 4
  %37 = tail call ptr @proto_tree_add_item(ptr noundef nonnull %6, i32 noundef %36, ptr noundef %0, i32 noundef %2, i32 noundef 4, i32 noundef -2147483648)
  %38 = load i32, ptr @hf_9P_dm_exec_others, align 4
  %39 = tail call ptr @proto_tree_add_item(ptr noundef nonnull %6, i32 noundef %38, ptr noundef %0, i32 noundef %2, i32 noundef 4, i32 noundef -2147483648)
  br label %40

40:                                               ; preds = %4, %21
  ret void
}